target datalayout = "e-m:e-p270:32:32-p271:32:32-p272:64:64-i64:64-i128:128-f80:128-n8:16:32:64-S128"
target triple = "x86_64-pc-linux-gnu"

%struct._dcerpc_info = type { ptr, i32, i64, i8, i8, i8, i32, i32, i32, i32, i32, i32, i32, i32, ptr, ptr, ptr, ptr, %struct.anon }
%struct.anon = type { i8, ptr, ptr, ptr, i8 }
%struct._packet_info = type { ptr, ptr, i32, i32, %struct.nstime_t, %struct.nstime_t, %struct.nstime_t, i8, ptr, ptr, ptr, ptr, %struct._address, %struct._address, %struct._address, %struct._address, %struct._address, %struct._address, i32, ptr, i8, [3 x i8], %struct.anon.0, i32, i32, i32, i32, ptr, i8, ptr, ptr, i16, i16, i32, i32, i16, i32, i32, ptr, ptr, ptr, i8, i8, i16, i16, i16, i32, i16, i16, ptr, ptr, ptr, ptr, ptr, i32, i32 }
%struct.nstime_t = type { i64, i32 }
%struct._address = type { i32, i32, ptr, ptr }
%struct.anon.0 = type { i8, [3 x i8] }
%struct._header_field_info = type { ptr, ptr, i32, i32, ptr, i64, ptr, i32, i32, i32, i32, ptr }

@.str = private unnamed_addr constant [7 x i8] c"%s(%d)\00", align 1
@.str.1 = private unnamed_addr constant [11 x i8] c"Unknown:%u\00", align 1
@.str.2 = private unnamed_addr constant [3 x i8] c"%d\00", align 1
@.str.3 = private unnamed_addr constant [11 x i8] c"%s(0x%02x)\00", align 1
@.str.4 = private unnamed_addr constant [7 x i8] c"0x%02x\00", align 1
@.str.5 = private unnamed_addr constant [26 x i8] c"Invalid hf->display value\00", align 1
@.str.6 = private unnamed_addr constant [7 x i8] c" %s:%s\00", align 1

; Function Attrs: null_pointer_is_valid sspstrong uwtable
define hidden i32 @PIDL_dissect_uint8_val(ptr noundef %0, i32 noundef %1, ptr noundef %2, ptr noundef %3, ptr noundef %4, ptr noundef %5, i32 noundef %6, i32 noundef %7, ptr noundef %8) #0 {
  %10 = alloca i32, align 4
  %11 = alloca ptr, align 8
  %12 = alloca i32, align 4
  %13 = alloca ptr, align 8
  %14 = alloca ptr, align 8
  %15 = alloca ptr, align 8
  %16 = alloca ptr, align 8
  %17 = alloca i32, align 4
  %18 = alloca i32, align 4
  %19 = alloca ptr, align 8
  %20 = alloca i8, align 1
  %21 = alloca i32, align 4
  %22 = alloca ptr, align 8
  %23 = alloca ptr, align 8
  store ptr %0, ptr %11, align 8
  store i32 %1, ptr %12, align 4
  store ptr %2, ptr %13, align 8
  store ptr %3, ptr %14, align 8
  store ptr %4, ptr %15, align 8
  store ptr %5, ptr %16, align 8
  store i32 %6, ptr %17, align 4
  store i32 %7, ptr %18, align 4
  store ptr %8, ptr %19, align 8
  call void @llvm.lifetime.start.p0(i64 1, ptr %20) #9
  %24 = load ptr, ptr %15, align 8
  %25 = getelementptr inbounds nuw %struct._dcerpc_info, ptr %24, i32 0, i32 4
  %26 = load i8, ptr %25, align 1, !range !6, !noundef !7
  %27 = trunc i8 %26 to i1
  br i1 %27, label %28, label %30

28:                                               ; preds = %9
  %29 = load i32, ptr %12, align 4
  store i32 %29, ptr %10, align 4
  store i32 1, ptr %21, align 4
  br label %122

30:                                               ; preds = %9
  %31 = load ptr, ptr %11, align 8
  %32 = load i32, ptr %12, align 4
  %33 = load ptr, ptr %13, align 8
  %34 = load ptr, ptr %14, align 8
  %35 = load ptr, ptr %16, align 8
  %36 = load i32, ptr %17, align 4
  %37 = call i32 @dissect_dcerpc_uint8(ptr noundef %31, i32 noundef %32, ptr noundef %33, ptr noundef %34, ptr noundef %35, i32 noundef %36, ptr noundef %20)
  store i32 %37, ptr %12, align 4
  %38 = load i32, ptr %18, align 4
  %39 = and i32 %38, 268435456
  %40 = icmp ne i32 %39, 0
  br i1 %40, label %41, label %114

41:                                               ; preds = %30
  call void @llvm.lifetime.start.p0(i64 8, ptr %22) #9
  call void @llvm.lifetime.start.p0(i64 8, ptr %23) #9
  %42 = load i32, ptr %17, align 4
  %43 = call ptr @proto_registrar_get_nth(i32 noundef %42)
  store ptr %43, ptr %22, align 8
  %44 = load ptr, ptr %13, align 8
  %45 = getelementptr inbounds nuw %struct._packet_info, ptr %44, i32 0, i32 51
  %46 = load ptr, ptr %45, align 8
  %47 = call noalias ptr @wmem_alloc(ptr noundef %46, i64 noundef 64) #10
  store ptr %47, ptr %23, align 8
  %48 = load ptr, ptr %23, align 8
  %49 = getelementptr i8, ptr %48, i64 0
  store i8 0, ptr %49, align 1
  %50 = load ptr, ptr %22, align 8
  %51 = getelementptr inbounds nuw %struct._header_field_info, ptr %50, i32 0, i32 3
  %52 = load i32, ptr %51, align 4
  switch i32 %52, label %105 [
    i32 1, label %53
    i32 2, label %79
  ]

53:                                               ; preds = %41
  %54 = load ptr, ptr %22, align 8
  %55 = getelementptr inbounds nuw %struct._header_field_info, ptr %54, i32 0, i32 4
  %56 = load ptr, ptr %55, align 8
  %57 = icmp ne ptr %56, null
  br i1 %57, label %58, label %71

58:                                               ; preds = %53
  %59 = load ptr, ptr %23, align 8
  %60 = load ptr, ptr %23, align 8
  %61 = call i64 @llvm.objectsize.i64.p0(ptr %60, i1 false, i1 true, i1 true)
  %62 = load i8, ptr %20, align 1
  %63 = zext i8 %62 to i32
  %64 = load ptr, ptr %22, align 8
  %65 = getelementptr inbounds nuw %struct._header_field_info, ptr %64, i32 0, i32 4
  %66 = load ptr, ptr %65, align 8
  %67 = call ptr @val_to_str(i32 noundef %63, ptr noundef %66, ptr noundef @.str.1)
  %68 = load i8, ptr %20, align 1
  %69 = zext i8 %68 to i32
  %70 = call i32 (ptr, i64, i32, i64, ptr, ...) @__snprintf_chk(ptr noundef %59, i64 noundef 64, i32 noundef 2, i64 noundef %61, ptr noundef @.str, ptr noundef %67, i32 noundef %69)
  br label %78

71:                                               ; preds = %53
  %72 = load ptr, ptr %23, align 8
  %73 = load ptr, ptr %23, align 8
  %74 = call i64 @llvm.objectsize.i64.p0(ptr %73, i1 false, i1 true, i1 true)
  %75 = load i8, ptr %20, align 1
  %76 = zext i8 %75 to i32
  %77 = call i32 (ptr, i64, i32, i64, ptr, ...) @__snprintf_chk(ptr noundef %72, i64 noundef 64, i32 noundef 2, i64 noundef %74, ptr noundef @.str.2, i32 noundef %76)
  br label %78

78:                                               ; preds = %71, %58
  br label %106

79:                                               ; preds = %41
  %80 = load ptr, ptr %22, align 8
  %81 = getelementptr inbounds nuw %struct._header_field_info, ptr %80, i32 0, i32 4
  %82 = load ptr, ptr %81, align 8
  %83 = icmp ne ptr %82, null
  br i1 %83, label %84, label %97

84:                                               ; preds = %79
  %85 = load ptr, ptr %23, align 8
  %86 = load ptr, ptr %23, align 8
  %87 = call i64 @llvm.objectsize.i64.p0(ptr %86, i1 false, i1 true, i1 true)
  %88 = load i8, ptr %20, align 1
  %89 = zext i8 %88 to i32
  %90 = load ptr, ptr %22, align 8
  %91 = getelementptr inbounds nuw %struct._header_field_info, ptr %90, i32 0, i32 4
  %92 = load ptr, ptr %91, align 8
  %93 = call ptr @val_to_str(i32 noundef %89, ptr noundef %92, ptr noundef @.str.1)
  %94 = load i8, ptr %20, align 1
  %95 = zext i8 %94 to i32
  %96 = call i32 (ptr, i64, i32, i64, ptr, ...) @__snprintf_chk(ptr noundef %85, i64 noundef 64, i32 noundef 2, i64 noundef %87, ptr noundef @.str.3, ptr noundef %93, i32 noundef %95)
  br label %104

97:                                               ; preds = %79
  %98 = load ptr, ptr %23, align 8
  %99 = load ptr, ptr %23, align 8
  %100 = call i64 @llvm.objectsize.i64.p0(ptr %99, i1 false, i1 true, i1 true)
  %101 = load i8, ptr %20, align 1
  %102 = zext i8 %101 to i32
  %103 = call i32 (ptr, i64, i32, i64, ptr, ...) @__snprintf_chk(ptr noundef %98, i64 noundef 64, i32 noundef 2, i64 noundef %100, ptr noundef @.str.4, i32 noundef %102)
  br label %104

104:                                              ; preds = %97, %84
  br label %106

105:                                              ; preds = %41
  call void (ptr, ...) @proto_report_dissector_bug(ptr noundef @.str.5) #11
  unreachable

106:                                              ; preds = %104, %78
  %107 = load ptr, ptr %13, align 8
  %108 = getelementptr inbounds nuw %struct._packet_info, ptr %107, i32 0, i32 1
  %109 = load ptr, ptr %108, align 8
  %110 = load ptr, ptr %22, align 8
  %111 = getelementptr inbounds nuw %struct._header_field_info, ptr %110, i32 0, i32 0
  %112 = load ptr, ptr %111, align 8
  %113 = load ptr, ptr %23, align 8
  call void (ptr, i32, ptr, ...) @col_append_fstr(ptr noundef %109, i32 noundef 25, ptr noundef @.str.6, ptr noundef %112, ptr noundef %113)
  call void @llvm.lifetime.end.p0(i64 8, ptr %23) #9
  call void @llvm.lifetime.end.p0(i64 8, ptr %22) #9
  br label %114

114:                                              ; preds = %106, %30
  %115 = load ptr, ptr %19, align 8
  %116 = icmp ne ptr %115, null
  br i1 %116, label %117, label %120

117:                                              ; preds = %114
  %118 = load i8, ptr %20, align 1
  %119 = load ptr, ptr %19, align 8
  store i8 %118, ptr %119, align 1
  br label %120

120:                                              ; preds = %117, %114
  %121 = load i32, ptr %12, align 4
  store i32 %121, ptr %10, align 4
  store i32 1, ptr %21, align 4
  br label %122

122:                                              ; preds = %120, %28
  call void @llvm.lifetime.end.p0(i64 1, ptr %20) #9
  %123 = load i32, ptr %10, align 4
  ret i32 %123
}