; Function Attrs: null_pointer_is_valid sspstrong uwtable
define hidden i32 @PIDL_dissect_uint8_val(ptr noundef %0, i32 noundef %1, ptr noundef %2, ptr noundef %3, ptr noundef readonly captures(none) %4, ptr noundef %5, i32 noundef %6, i32 noundef %7, ptr noundef writeonly captures(address_is_null) %8) local_unnamed_addr #0 {
  %10 = alloca i8, align 1
  call void @llvm.lifetime.start.p0(i64 1, ptr nonnull %10) #8
  %11 = getelementptr inbounds nuw i8, ptr %4, i64 25
  %12 = load i8, ptr %11, align 1, !range !6, !noundef !7
  %13 = trunc nuw i8 %12 to i1
  br i1 %13, label %56, label %14

14:                                               ; preds = %9
  %15 = call i32 @dissect_dcerpc_uint8(ptr noundef %0, i32 noundef %1, ptr noundef %2, ptr noundef %3, ptr noundef %5, i32 noundef %6, ptr noundef nonnull %10)
  %16 = and i32 %7, 268435456
  %.not = icmp eq i32 %16, 0
  br i1 %.not, label %53, label %17

17:                                               ; preds = %14
  %18 = call ptr @proto_registrar_get_nth(i32 noundef %6)
  %19 = getelementptr inbounds nuw i8, ptr %2, i64 408
  %20 = load ptr, ptr %19, align 8
  %21 = call noalias dereferenceable_or_null(64) ptr @wmem_alloc(ptr noundef %20, i64 noundef 64) #9
  store i8 0, ptr %21, align 1
  %22 = getelementptr inbounds nuw i8, ptr %18, i64 20
  %23 = load i32, ptr %22, align 4
  switch i32 %23, label %48 [
    i32 1, label %24
    i32 2, label %36
  ]

24:                                               ; preds = %17
  %25 = getelementptr inbounds nuw i8, ptr %18, i64 24
  %26 = load ptr, ptr %25, align 8
  %.not35 = icmp eq ptr %26, null
  %27 = load i8, ptr %10, align 1
  %28 = zext i8 %27 to i32
  br i1 %.not35, label %34, label %29

29:                                               ; preds = %24
  %30 = call ptr @val_to_str(i32 noundef %28, ptr noundef nonnull %26, ptr noundef nonnull @.str.1)
  %31 = load i8, ptr %10, align 1
  %32 = zext i8 %31 to i32
  %33 = call i32 (ptr, i64, i32, i64, ptr, ...) @__snprintf_chk(ptr noundef %21, i64 noundef 64, i32 noundef 2, i64 noundef 64, ptr noundef nonnull @.str, ptr noundef %30, i32 noundef %32)
  br label %49

34:                                               ; preds = %24
  %35 = call i32 (ptr, i64, i32, i64, ptr, ...) @__snprintf_chk(ptr noundef %21, i64 noundef 64, i32 noundef 2, i64 noundef 64, ptr noundef nonnull @.str.2, i32 noundef %28)
  br label %49

36:                                               ; preds = %17
  %37 = getelementptr inbounds nuw i8, ptr %18, i64 24
  %38 = load ptr, ptr %37, align 8
  %.not34 = icmp eq ptr %38, null
  %39 = load i8, ptr %10, align 1
  %40 = zext i8 %39 to i32
  br i1 %.not34, label %46, label %41

41:                                               ; preds = %36
  %42 = call ptr @val_to_str(i32 noundef %40, ptr noundef nonnull %38, ptr noundef nonnull @.str.1)
  %43 = load i8, ptr %10, align 1
  %44 = zext i8 %43 to i32
  %45 = call i32 (ptr, i64, i32, i64, ptr, ...) @__snprintf_chk(ptr noundef %21, i64 noundef 64, i32 noundef 2, i64 noundef 64, ptr noundef nonnull @.str.3, ptr noundef %42, i32 noundef %44)
  br label %49

46:                                               ; preds = %36
  %47 = call i32 (ptr, i64, i32, i64, ptr, ...) @__snprintf_chk(ptr noundef %21, i64 noundef 64, i32 noundef 2, i64 noundef 64, ptr noundef nonnull @.str.4, i32 noundef %40)
  br label %49

48:                                               ; preds = %17
  call void (ptr, ...) @proto_report_dissector_bug(ptr noundef nonnull @.str.5) #10
  unreachable

49:                                               ; preds = %41, %46, %29, %34
  %50 = getelementptr inbounds nuw i8, ptr %2, i64 8
  %51 = load ptr, ptr %50, align 8
  %52 = load ptr, ptr %18, align 8
  call void (ptr, i32, ptr, ...) @col_append_fstr(ptr noundef %51, i32 noundef 25, ptr noundef nonnull @.str.6, ptr noundef %52, ptr noundef %21)
  br label %53

53:                                               ; preds = %49, %14
  %.not36 = icmp eq ptr %8, null
  br i1 %.not36, label %56, label %54

54:                                               ; preds = %53
  %55 = load i8, ptr %10, align 1
  store i8 %55, ptr %8, align 1
  br label %56

56:                                               ; preds = %53, %54, %9
  %.0 = phi i32 [ %1, %9 ], [ %15, %54 ], [ %15, %53 ]
  call void @llvm.lifetime.end.p0(i64 1, ptr nonnull %10) #8
  ret i32 %.0
}